   1               		.file	"main.c"
   2               	__SREG__ = 0x3f
   3               	__SP_H__ = 0x3e
   4               	__SP_L__ = 0x3d
   5               	__CCP__  = 0x34
   6               	__tmp_reg__ = 0
   7               	__zero_reg__ = 1
  15               	.Ltext0:
  16               	.global	zloz_pakiet
  18               	zloz_pakiet:
  19               	.LFB8:
  20               	.LM1:
  21               	.LVL0:
  22               	/* prologue: function */
  23               	/* frame size = 0 */
  24 0000 FC01      		movw r30,r24
  25               	.LM2:
  26 0002 8CE3      		ldi r24,lo8(60)
  27               	.LVL1:
  28 0004 8093 0000 		sts dane,r24
  29               	.LM3:
  30 0008 89E4      		ldi r24,lo8(73)
  31 000a 8093 0000 		sts dane+1,r24
  32               	.LM4:
  33 000e 8EE3      		ldi r24,lo8(62)
  34 0010 8093 0000 		sts dane+2,r24
  35               	.LM5:
  36 0014 8181      		ldd r24,Z+1
  37 0016 8823      		tst r24
  38 0018 01F4      		brne .L2
  39 001a 8091 0000 		lds r24,dane+3
  40 001e 8160      		ori r24,lo8(1)
  41 0020 00C0      		rjmp .L51
  42               	.L2:
  43               	.LM6:
  44 0022 8091 0000 		lds r24,dane+3
  45 0026 8E7F      		andi r24,lo8(-2)
  46               	.L51:
  47 0028 8093 0000 		sts dane+3,r24
  48               	.LM7:
  49 002c 8281      		ldd r24,Z+2
  50 002e 8823      		tst r24
  51 0030 01F4      		brne .L4
  52 0032 8091 0000 		lds r24,dane+3
  53 0036 8260      		ori r24,lo8(2)
  54 0038 00C0      		rjmp .L52
  55               	.L4:
  56               	.LM8:
  57 003a 8091 0000 		lds r24,dane+3
  58 003e 8D7F      		andi r24,lo8(-3)
  59               	.L52:
  60 0040 8093 0000 		sts dane+3,r24
  61               	.LM9:
  62 0044 8381      		ldd r24,Z+3
  63 0046 8823      		tst r24
  64 0048 01F4      		brne .L6
  65 004a 8091 0000 		lds r24,dane+3
  66 004e 8460      		ori r24,lo8(4)
  67 0050 00C0      		rjmp .L53
  68               	.L6:
  69               	.LM10:
  70 0052 8091 0000 		lds r24,dane+3
  71 0056 8B7F      		andi r24,lo8(-5)
  72               	.L53:
  73 0058 8093 0000 		sts dane+3,r24
  74               	.LM11:
  75 005c 8481      		ldd r24,Z+4
  76 005e 8823      		tst r24
  77 0060 01F4      		brne .L8
  78 0062 8091 0000 		lds r24,dane+3
  79 0066 8860      		ori r24,lo8(8)
  80 0068 00C0      		rjmp .L54
  81               	.L8:
  82               	.LM12:
  83 006a 8091 0000 		lds r24,dane+3
  84 006e 877F      		andi r24,lo8(-9)
  85               	.L54:
  86 0070 8093 0000 		sts dane+3,r24
  87               	.LM13:
  88 0074 8581      		ldd r24,Z+5
  89 0076 8823      		tst r24
  90 0078 01F4      		brne .L10
  91 007a 8091 0000 		lds r24,dane+3
  92 007e 8061      		ori r24,lo8(16)
  93 0080 00C0      		rjmp .L55
  94               	.L10:
  95               	.LM14:
  96 0082 8091 0000 		lds r24,dane+3
  97 0086 8F7E      		andi r24,lo8(-17)
  98               	.L55:
  99 0088 8093 0000 		sts dane+3,r24
 100               	.LM15:
 101 008c 8681      		ldd r24,Z+6
 102 008e 8823      		tst r24
 103 0090 01F4      		brne .L12
 104 0092 8091 0000 		lds r24,dane+3
 105 0096 8062      		ori r24,lo8(32)
 106 0098 00C0      		rjmp .L56
 107               	.L12:
 108               	.LM16:
 109 009a 8091 0000 		lds r24,dane+3
 110 009e 8F7D      		andi r24,lo8(-33)
 111               	.L56:
 112 00a0 8093 0000 		sts dane+3,r24
 113               	.LM17:
 114 00a4 8781      		ldd r24,Z+7
 115 00a6 8823      		tst r24
 116 00a8 01F4      		brne .L14
 117 00aa 8091 0000 		lds r24,dane+3
 118 00ae 8064      		ori r24,lo8(64)
 119 00b0 00C0      		rjmp .L57
 120               	.L14:
 121               	.LM18:
 122 00b2 8091 0000 		lds r24,dane+3
 123 00b6 8F7B      		andi r24,lo8(-65)
 124               	.L57:
 125 00b8 8093 0000 		sts dane+3,r24
 126               	.LM19:
 127 00bc 8085      		ldd r24,Z+8
 128 00be 8823      		tst r24
 129 00c0 01F4      		brne .L16
 130 00c2 8091 0000 		lds r24,dane+3
 131 00c6 8068      		ori r24,lo8(-128)
 132 00c8 00C0      		rjmp .L58
 133               	.L16:
 134               	.LM20:
 135 00ca 8091 0000 		lds r24,dane+3
 136 00ce 8F77      		andi r24,lo8(127)
 137               	.L58:
 138 00d0 8093 0000 		sts dane+3,r24
 139               	.LM21:
 140 00d4 8185      		ldd r24,Z+9
 141 00d6 8823      		tst r24
 142 00d8 01F4      		brne .L18
 143 00da 8091 0000 		lds r24,dane+4
 144 00de 8160      		ori r24,lo8(1)
 145 00e0 00C0      		rjmp .L59
 146               	.L18:
 147               	.LM22:
 148 00e2 8091 0000 		lds r24,dane+4
 149 00e6 8E7F      		andi r24,lo8(-2)
 150               	.L59:
 151 00e8 8093 0000 		sts dane+4,r24
 152               	.LM23:
 153 00ec 8285      		ldd r24,Z+10
 154 00ee 8823      		tst r24
 155 00f0 01F4      		brne .L20
 156 00f2 8091 0000 		lds r24,dane+4
 157 00f6 8260      		ori r24,lo8(2)
 158 00f8 00C0      		rjmp .L60
 159               	.L20:
 160               	.LM24:
 161 00fa 8091 0000 		lds r24,dane+4
 162 00fe 8D7F      		andi r24,lo8(-3)
 163               	.L60:
 164 0100 8093 0000 		sts dane+4,r24
 165               	.LM25:
 166 0104 8385      		ldd r24,Z+11
 167 0106 8823      		tst r24
 168 0108 01F4      		brne .L22
 169 010a 8091 0000 		lds r24,dane+4
 170 010e 8460      		ori r24,lo8(4)
 171 0110 00C0      		rjmp .L61
 172               	.L22:
 173               	.LM26:
 174 0112 8091 0000 		lds r24,dane+4
 175 0116 8B7F      		andi r24,lo8(-5)
 176               	.L61:
 177 0118 8093 0000 		sts dane+4,r24
 178               	.LM27:
 179 011c 8485      		ldd r24,Z+12
 180 011e 8823      		tst r24
 181 0120 01F4      		brne .L24
 182 0122 8091 0000 		lds r24,dane+4
 183 0126 8860      		ori r24,lo8(8)
 184 0128 00C0      		rjmp .L62
 185               	.L24:
 186               	.LM28:
 187 012a 8091 0000 		lds r24,dane+4
 188 012e 877F      		andi r24,lo8(-9)
 189               	.L62:
 190 0130 8093 0000 		sts dane+4,r24
 191               	.LM29:
 192 0134 8585      		ldd r24,Z+13
 193 0136 8823      		tst r24
 194 0138 01F4      		brne .L26
 195 013a 8091 0000 		lds r24,dane+4
 196 013e 8061      		ori r24,lo8(16)
 197 0140 00C0      		rjmp .L63
 198               	.L26:
 199               	.LM30:
 200 0142 8091 0000 		lds r24,dane+4
 201 0146 8F7E      		andi r24,lo8(-17)
 202               	.L63:
 203 0148 8093 0000 		sts dane+4,r24
 204               	.LM31:
 205 014c 8685      		ldd r24,Z+14
 206 014e 8130      		cpi r24,lo8(1)
 207 0150 01F4      		brne .L28
 208 0152 8091 0000 		lds r24,dane+4
 209 0156 8062      		ori r24,lo8(32)
 210 0158 00C0      		rjmp .L64
 211               	.L28:
 212               	.LM32:
 213 015a 8091 0000 		lds r24,dane+4
 214 015e 8F7D      		andi r24,lo8(-33)
 215               	.L64:
 216 0160 8093 0000 		sts dane+4,r24
 217               	.LM33:
 218 0164 8785      		ldd r24,Z+15
 219 0166 8130      		cpi r24,lo8(1)
 220 0168 01F4      		brne .L30
 221 016a 8091 0000 		lds r24,dane+4
 222 016e 8064      		ori r24,lo8(64)
 223 0170 00C0      		rjmp .L65
 224               	.L30:
 225               	.LM34:
 226 0172 8091 0000 		lds r24,dane+4
 227 0176 8F7B      		andi r24,lo8(-65)
 228               	.L65:
 229 0178 8093 0000 		sts dane+4,r24
 230               	.LM35:
 231 017c 8089      		ldd r24,Z+16
 232 017e 8130      		cpi r24,lo8(1)
 233 0180 01F4      		brne .L32
 234 0182 8091 0000 		lds r24,dane+4
 235 0186 8068      		ori r24,lo8(-128)
 236 0188 00C0      		rjmp .L66
 237               	.L32:
 238               	.LM36:
 239 018a 8091 0000 		lds r24,dane+4
 240 018e 8F77      		andi r24,lo8(127)
 241               	.L66:
 242 0190 8093 0000 		sts dane+4,r24
 243               	.LM37:
 244 0194 8189      		ldd r24,Z+17
 245 0196 8130      		cpi r24,lo8(1)
 246 0198 01F4      		brne .L34
 247 019a 8091 0000 		lds r24,dane+5
 248 019e 8160      		ori r24,lo8(1)
 249 01a0 00C0      		rjmp .L67
 250               	.L34:
 251               	.LM38:
 252 01a2 8091 0000 		lds r24,dane+5
 253 01a6 8E7F      		andi r24,lo8(-2)
 254               	.L67:
 255 01a8 8093 0000 		sts dane+5,r24
 256               	.LM39:
 257 01ac 8289      		ldd r24,Z+18
 258 01ae 8130      		cpi r24,lo8(1)
 259 01b0 01F4      		brne .L36
 260 01b2 8091 0000 		lds r24,dane+5
 261 01b6 8260      		ori r24,lo8(2)
 262 01b8 00C0      		rjmp .L68
 263               	.L36:
 264               	.LM40:
 265 01ba 8091 0000 		lds r24,dane+5
 266 01be 8D7F      		andi r24,lo8(-3)
 267               	.L68:
 268 01c0 8093 0000 		sts dane+5,r24
 269               	.LM41:
 270 01c4 8389      		ldd r24,Z+19
 271 01c6 8130      		cpi r24,lo8(1)
 272 01c8 01F4      		brne .L38
 273 01ca 8091 0000 		lds r24,dane+5
 274 01ce 8460      		ori r24,lo8(4)
 275 01d0 00C0      		rjmp .L69
 276               	.L38:
 277               	.LM42:
 278 01d2 8091 0000 		lds r24,dane+5
 279 01d6 8B7F      		andi r24,lo8(-5)
 280               	.L69:
 281 01d8 8093 0000 		sts dane+5,r24
 282               	.LM43:
 283 01dc 8489      		ldd r24,Z+20
 284 01de 8130      		cpi r24,lo8(1)
 285 01e0 01F4      		brne .L40
 286 01e2 8091 0000 		lds r24,dane+5
 287 01e6 8860      		ori r24,lo8(8)
 288 01e8 00C0      		rjmp .L70
 289               	.L40:
 290               	.LM44:
 291 01ea 8091 0000 		lds r24,dane+5
 292 01ee 877F      		andi r24,lo8(-9)
 293               	.L70:
 294 01f0 8093 0000 		sts dane+5,r24
 295               	.LM45:
 296 01f4 8589      		ldd r24,Z+21
 297 01f6 8130      		cpi r24,lo8(1)
 298 01f8 01F4      		brne .L42
 299 01fa 8091 0000 		lds r24,dane+5
 300 01fe 8061      		ori r24,lo8(16)
 301 0200 00C0      		rjmp .L71
 302               	.L42:
 303               	.LM46:
 304 0202 8091 0000 		lds r24,dane+5
 305 0206 8F7E      		andi r24,lo8(-17)
 306               	.L71:
 307 0208 8093 0000 		sts dane+5,r24
 308               	.LM47:
 309 020c 8689      		ldd r24,Z+22
 310 020e 8130      		cpi r24,lo8(1)
 311 0210 01F4      		brne .L44
 312 0212 8091 0000 		lds r24,dane+5
 313 0216 8062      		ori r24,lo8(32)
 314 0218 00C0      		rjmp .L72
 315               	.L44:
 316               	.LM48:
 317 021a 8091 0000 		lds r24,dane+5
 318 021e 8F7D      		andi r24,lo8(-33)
 319               	.L72:
 320 0220 8093 0000 		sts dane+5,r24
 321               	.LM49:
 322 0224 8789      		ldd r24,Z+23
 323 0226 8130      		cpi r24,lo8(1)
 324 0228 01F4      		brne .L46
 325 022a 8091 0000 		lds r24,dane+5
 326 022e 8064      		ori r24,lo8(64)
 327 0230 00C0      		rjmp .L73
 328               	.L46:
 329               	.LM50:
 330 0232 8091 0000 		lds r24,dane+5
 331 0236 8F7B      		andi r24,lo8(-65)
 332               	.L73:
 333 0238 8093 0000 		sts dane+5,r24
 334               	.LM51:
 335 023c 808D      		ldd r24,Z+24
 336 023e 8130      		cpi r24,lo8(1)
 337 0240 01F4      		brne .L48
 338 0242 8091 0000 		lds r24,dane+5
 339 0246 8068      		ori r24,lo8(-128)
 340 0248 00C0      		rjmp .L74
 341               	.L48:
 342               	.LM52:
 343 024a 8091 0000 		lds r24,dane+5
 344 024e 8F77      		andi r24,lo8(127)
 345               	.L74:
 346 0250 8093 0000 		sts dane+5,r24
 347               	.LM53:
 348 0254 80E0      		ldi r24,lo8(0)
 349 0256 90E0      		ldi r25,hi8(0)
 350               	/* epilogue start */
 351 0258 0895      		ret
 352               	.LFE8:
 354               	.global	SystemInit
 356               	SystemInit:
 357               	.LFB9:
 358               	.LM54:
 359               	/* prologue: function */
 360               	/* frame size = 0 */
 361               	.LM55:
 362 025a 84B1      		in r24,36-32
 363 025c 806A      		ori r24,lo8(-96)
 364 025e 84B9      		out 36-32,r24
 365               	.LM56:
 366 0260 2698      		cbi 36-32,6
 367               	.LM57:
 368 0262 2D98      		cbi 37-32,5
 369               	.LM58:
 370 0264 2F98      		cbi 37-32,7
 371               	.LM59:
 372 0266 509A      		sbi 42-32,0
 373               	.LM60:
 374 0268 589A      		sbi 43-32,0
 375               	.LM61:
 376 026a 85E0      		ldi r24,lo8(5)
 377 026c 85BD      		out 69-32,r24
 378 026e EEE6      		ldi r30,lo8(110)
 379 0270 F0E0      		ldi r31,hi8(110)
 380 0272 8081      		ld r24,Z
 381 0274 8160      		ori r24,lo8(1)
 382 0276 8083      		st Z,r24
 383               	.LM62:
 384               	/* #APP */
 385               	 ;  579 "main.c" 1
 386 0278 7894      		sei
 387               	 ;  0 "" 2
 388               	.LM63:
 389               	/* #NOAPP */
 390 027a 87B1      		in r24,39-32
 391 027c 87B9      		out 39-32,r24
 392               	.LM64:
 393 027e 88B1      		in r24,40-32
 394 0280 9FEF      		ldi r25,lo8(-1)
 395 0282 98B9      		out 40-32,r25
 396               	.LM65:
 397 0284 81B1      		in r24,33-32
 398 0286 81B9      		out 33-32,r24
 399               	.LM66:
 400 0288 82B1      		in r24,34-32
 401 028a 92B9      		out 34-32,r25
 402               	.LM67:
 403 028c 8AB1      		in r24,42-32
 404 028e 8F70      		andi r24,lo8(15)
 405 0290 8AB9      		out 42-32,r24
 406               	.LM68:
 407 0292 8BB1      		in r24,43-32
 408 0294 806F      		ori r24,lo8(-16)
 409 0296 8BB9      		out 43-32,r24
 410               	.LM69:
 411 0298 84B1      		in r24,36-32
 412 029a 807F      		andi r24,lo8(-16)
 413 029c 84B9      		out 36-32,r24
 414               	.LM70:
 415 029e 85B1      		in r24,37-32
 416 02a0 8F60      		ori r24,lo8(15)
 417 02a2 85B9      		out 37-32,r24
 418               	.LM71:
 419 02a4 539A      		sbi 42-32,3
 420               	/* epilogue start */
 421               	.LM72:
 422 02a6 0895      		ret
 423               	.LFE9:
 425               	.global	__vector_18
 427               	__vector_18:
 428               	.LFB10:
 429               	.LM73:
 430 02a8 1F92      		push __zero_reg__
 431 02aa 0F92      		push r0
 432 02ac 0FB6      		in r0,__SREG__
 433 02ae 0F92      		push r0
 434 02b0 1124      		clr __zero_reg__
 435 02b2 8F93      		push r24
 436 02b4 9F93      		push r25
 437               	/* prologue: Signal */
 438               	/* frame size = 0 */
 439               	.LM74:
 440 02b6 8091 0000 		lds r24,reset_time
 441 02ba 9091 0000 		lds r25,(reset_time)+1
 442 02be 0196      		adiw r24,1
 443 02c0 9093 0000 		sts (reset_time)+1,r25
 444 02c4 8093 0000 		sts reset_time,r24
 445               	.LM75:
 446 02c8 8091 0000 		lds r24,led_delay
 447 02cc 8F5F      		subi r24,lo8(-(1))
 448 02ce 8093 0000 		sts led_delay,r24
 449               	/* epilogue start */
 450               	.LM76:
 451 02d2 9F91      		pop r25
 452 02d4 8F91      		pop r24
 453 02d6 0F90      		pop r0
 454 02d8 0FBE      		out __SREG__,r0
 455 02da 0F90      		pop r0
 456 02dc 1F90      		pop __zero_reg__
 457 02de 1895      		reti
 458               	.LFE10:
 460               	.global	main
 462               	main:
 463               	.LFB7:
 464               	.LM77:
 465 02e0 AF92      		push r10
 466 02e2 BF92      		push r11
 467 02e4 CF92      		push r12
 468 02e6 DF92      		push r13
 469 02e8 EF92      		push r14
 470 02ea FF92      		push r15
 471 02ec 0F93      		push r16
 472 02ee 1F93      		push r17
 473 02f0 DF93      		push r29
 474 02f2 CF93      		push r28
 475 02f4 CDB7      		in r28,__SP_L__
 476 02f6 DEB7      		in r29,__SP_H__
 477 02f8 E297      		sbiw r28,50
 478 02fa 0FB6      		in __tmp_reg__,__SREG__
 479 02fc F894      		cli
 480 02fe DEBF      		out __SP_H__,r29
 481 0300 0FBE      		out __SREG__,__tmp_reg__
 482 0302 CDBF      		out __SP_L__,r28
 483               	/* prologue: function */
 484               	/* frame size = 50 */
 485               	.LM78:
 486 0304 80E0      		ldi r24,lo8(0)
 487 0306 90E0      		ldi r25,hi8(0)
 488               	.LVL2:
 489               	.LBB2:
 490               	.LM79:
 491 0308 AE01      		movw r20,r28
 492 030a 465E      		subi r20,lo8(-(26))
 493 030c 5F4F      		sbci r21,hi8(-(26))
 494               	.LM80:
 495 030e 9E01      		movw r18,r28
 496 0310 2F5F      		subi r18,lo8(-(1))
 497 0312 3F4F      		sbci r19,hi8(-(1))
 498               	.L80:
 499               	.LM81:
 500 0314 FA01      		movw r30,r20
 501 0316 E80F      		add r30,r24
 502 0318 F91F      		adc r31,r25
 503 031a 1082      		st Z,__zero_reg__
 504               	.LM82:
 505 031c F901      		movw r30,r18
 506 031e E80F      		add r30,r24
 507 0320 F91F      		adc r31,r25
 508 0322 1082      		st Z,__zero_reg__
 509               	.LM83:
 510 0324 0196      		adiw r24,1
 511 0326 8A31      		cpi r24,26
 512 0328 9105      		cpc r25,__zero_reg__
 513 032a 01F4      		brne .L80
 514               	.LBE2:
 515               	.LM84:
 516 032c 0E94 0000 		call SystemInit
 517               	.LVL3:
 518               	.LM85:
 519 0330 80E0      		ldi r24,lo8(mymac)
 520 0332 90E0      		ldi r25,hi8(mymac)
 521 0334 0E94 0000 		call enc28j60Init
 522               	.LM86:
 523 0338 84E1      		ldi r24,lo8(20)
 524 033a 66E7      		ldi r22,lo8(1142)
 525 033c 74E0      		ldi r23,hi8(1142)
 526 033e 0E94 0000 		call enc28j60PhyWrite
 527               	.LM87:
 528 0342 80E0      		ldi r24,lo8(mymac)
 529 0344 90E0      		ldi r25,hi8(mymac)
 530 0346 60E0      		ldi r22,lo8(myip)
 531 0348 70E0      		ldi r23,hi8(myip)
 532 034a 40E5      		ldi r20,lo8(80)
 533 034c 50E0      		ldi r21,hi8(80)
 534 034e 0E94 0000 		call init_ip_arp_udp_tcp
 535               	.LM88:
 536 0352 1092 0000 		sts (reset_time)+1,__zero_reg__
 537 0356 1092 0000 		sts reset_time,__zero_reg__
 538               	.LM89:
 539 035a 01E0      		ldi r16,lo8(1)
 540               	.LM90:
 541 035c 4AE1      		ldi r20,lo8(26)
 542 035e E42E      		mov r14,r20
 543 0360 F12C      		mov r15,__zero_reg__
 544 0362 EC0E      		add r14,r28
 545 0364 FD1E      		adc r15,r29
 546               	.LM91:
 547 0366 38E0      		ldi r19,lo8(8)
 548 0368 C32E      		mov r12,r19
 549               	.LM92:
 550 036a 21E1      		ldi r18,lo8(17)
 551 036c B22E      		mov r11,r18
 552               	.LM93:
 553 036e 94E0      		ldi r25,lo8(4)
 554 0370 A92E      		mov r10,r25
 555               	.LM94:
 556 0372 80EB      		ldi r24,lo8(-80)
 557 0374 D82E      		mov r13,r24
 558               	.L149:
 559               	.LM95:
 560 0376 8091 0000 		lds r24,reset_time
 561 037a 9091 0000 		lds r25,(reset_time)+1
 562 037e 21E0      		ldi r18,hi8(306)
 563 0380 8233      		cpi r24,lo8(306)
 564 0382 9207      		cpc r25,r18
 565 0384 01F4      		brne .L81
 566               	.LM96:
 567 0386 5898      		cbi 43-32,0
 568 0388 00C0      		rjmp .L82
 569               	.L81:
 570               	.LM97:
 571 038a A1E0      		ldi r26,hi8(307)
 572 038c 8333      		cpi r24,lo8(307)
 573 038e 9A07      		cpc r25,r26
 574 0390 01F4      		brne .L83
 575               	.LM98:
 576 0392 589A      		sbi 43-32,0
 577 0394 00C0      		rjmp .L82
 578               	.L83:
 579               	.LM99:
 580 0396 8453      		subi r24,lo8(308)
 581 0398 9140      		sbci r25,hi8(308)
 582 039a 04F0      		brlt .L82
 583               	.LM100:
 584 039c 1092 0000 		sts (reset_time)+1,__zero_reg__
 585 03a0 1092 0000 		sts reset_time,__zero_reg__
 586               	.LM101:
 587 03a4 80E0      		ldi r24,lo8(mymac)
 588 03a6 90E0      		ldi r25,hi8(mymac)
 589 03a8 0E94 0000 		call enc28j60Init
 590               	.LM102:
 591 03ac 84E1      		ldi r24,lo8(20)
 592 03ae 66E7      		ldi r22,lo8(1142)
 593 03b0 74E0      		ldi r23,hi8(1142)
 594 03b2 0E94 0000 		call enc28j60PhyWrite
 595               	.LM103:
 596 03b6 80E0      		ldi r24,lo8(mymac)
 597 03b8 90E0      		ldi r25,hi8(mymac)
 598 03ba 60E0      		ldi r22,lo8(myip)
 599 03bc 70E0      		ldi r23,hi8(myip)
 600 03be 40E5      		ldi r20,lo8(80)
 601 03c0 50E0      		ldi r21,hi8(80)
 602 03c2 0E94 0000 		call init_ip_arp_udp_tcp
 603               	.LM104:
 604 03c6 1092 0000 		sts (reset_time)+1,__zero_reg__
 605 03ca 1092 0000 		sts reset_time,__zero_reg__
 606               	.LM105:
 607 03ce 0093 0000 		sts zmiana,r16
 608               	.L82:
 609               	.LM106:
 610 03d2 8091 0000 		lds r24,led
 611 03d6 8130      		cpi r24,lo8(1)
 612 03d8 01F4      		brne .L84
 613 03da 1092 0000 		sts led_delay,__zero_reg__
 614 03de 5B98      		cbi 43-32,3
 615               	.L84:
 616               	.LM107:
 617 03e0 8091 0000 		lds r24,led_delay
 618 03e4 8530      		cpi r24,lo8(5)
 619 03e6 00F0      		brlo .L85
 620 03e8 5B9A      		sbi 43-32,3
 621               	.L85:
 622               	.LM108:
 623 03ea 1092 0000 		sts led,__zero_reg__
 624 03ee 8A81      		ldd r24,Y+2
 625               	.LM109:
 626 03f0 4D99      		sbic 41-32,5
 627 03f2 00C0      		rjmp .L86
 628               	.LM110:
 629 03f4 0B8F      		std Y+27,r16
 630               	.LM111:
 631 03f6 8823      		tst r24
 632 03f8 01F4      		brne .L87
 633               	.LM112:
 634 03fa 0093 0000 		sts zmiana,r16
 635               	.LM113:
 636 03fe 0A83      		std Y+2,r16
 637 0400 00C0      		rjmp .L87
 638               	.L86:
 639               	.LM114:
 640 0402 1B8E      		std Y+27,__zero_reg__
 641               	.LM115:
 642 0404 8130      		cpi r24,lo8(1)
 643 0406 01F4      		brne .L87
 644               	.LM116:
 645 0408 8093 0000 		sts zmiana,r24
 646               	.LM117:
 647 040c 1A82      		std Y+2,__zero_reg__
 648               	.L87:
 649 040e 8B81      		ldd r24,Y+3
 650               	.LM118:
 651 0410 4C99      		sbic 41-32,4
 652 0412 00C0      		rjmp .L88
 653               	.LM119:
 654 0414 0C8F      		std Y+28,r16
 655               	.LM120:
 656 0416 8823      		tst r24
 657 0418 01F4      		brne .L89
 658               	.LM121:
 659 041a 0093 0000 		sts zmiana,r16
 660               	.LM122:
 661 041e 0B83      		std Y+3,r16
 662 0420 00C0      		rjmp .L89
 663               	.L88:
 664               	.LM123:
 665 0422 1C8E      		std Y+28,__zero_reg__
 666               	.LM124:
 667 0424 8130      		cpi r24,lo8(1)
 668 0426 01F4      		brne .L89
 669               	.LM125:
 670 0428 8093 0000 		sts zmiana,r24
 671               	.LM126:
 672 042c 1B82      		std Y+3,__zero_reg__
 673               	.L89:
 674 042e 8C81      		ldd r24,Y+4
 675               	.LM127:
 676 0430 4F99      		sbic 41-32,7
 677 0432 00C0      		rjmp .L90
 678               	.LM128:
 679 0434 0D8F      		std Y+29,r16
 680               	.LM129:
 681 0436 8823      		tst r24
 682 0438 01F4      		brne .L91
 683               	.LM130:
 684 043a 0093 0000 		sts zmiana,r16
 685               	.LM131:
 686 043e 0C83      		std Y+4,r16
 687 0440 00C0      		rjmp .L91
 688               	.L90:
 689               	.LM132:
 690 0442 1D8E      		std Y+29,__zero_reg__
 691               	.LM133:
 692 0444 8130      		cpi r24,lo8(1)
 693 0446 01F4      		brne .L91
 694               	.LM134:
 695 0448 8093 0000 		sts zmiana,r24
 696               	.LM135:
 697 044c 1C82      		std Y+4,__zero_reg__
 698               	.L91:
 699 044e 8D81      		ldd r24,Y+5
 700               	.LM136:
 701 0450 4E99      		sbic 41-32,6
 702 0452 00C0      		rjmp .L92
 703               	.LM137:
 704 0454 0E8F      		std Y+30,r16
 705               	.LM138:
 706 0456 8823      		tst r24
 707 0458 01F4      		brne .L93
 708               	.LM139:
 709 045a 0093 0000 		sts zmiana,r16
 710               	.LM140:
 711 045e 0D83      		std Y+5,r16
 712 0460 00C0      		rjmp .L93
 713               	.L92:
 714               	.LM141:
 715 0462 1E8E      		std Y+30,__zero_reg__
 716               	.LM142:
 717 0464 8130      		cpi r24,lo8(1)
 718 0466 01F4      		brne .L93
 719               	.LM143:
 720 0468 8093 0000 		sts zmiana,r24
 721               	.LM144:
 722 046c 1D82      		std Y+5,__zero_reg__
 723               	.L93:
 724 046e 8E81      		ldd r24,Y+6
 725               	.LM145:
 726 0470 3199      		sbic 38-32,1
 727 0472 00C0      		rjmp .L94
 728               	.LM146:
 729 0474 0F8F      		std Y+31,r16
 730               	.LM147:
 731 0476 8823      		tst r24
 732 0478 01F4      		brne .L95
 733               	.LM148:
 734 047a 0093 0000 		sts zmiana,r16
 735               	.LM149:
 736 047e 0E83      		std Y+6,r16
 737 0480 00C0      		rjmp .L95
 738               	.L94:
 739               	.LM150:
 740 0482 1F8E      		std Y+31,__zero_reg__
 741               	.LM151:
 742 0484 8130      		cpi r24,lo8(1)
 743 0486 01F4      		brne .L95
 744               	.LM152:
 745 0488 8093 0000 		sts zmiana,r24
 746               	.LM153:
 747 048c 1E82      		std Y+6,__zero_reg__
 748               	.L95:
 749 048e 8F81      		ldd r24,Y+7
 750               	.LM154:
 751 0490 3099      		sbic 38-32,0
 752 0492 00C0      		rjmp .L96
 753               	.LM155:
 754 0494 08A3      		std Y+32,r16
 755               	.LM156:
 756 0496 8823      		tst r24
 757 0498 01F4      		brne .L97
 758               	.LM157:
 759 049a 0093 0000 		sts zmiana,r16
 760               	.LM158:
 761 049e 0F83      		std Y+7,r16
 762 04a0 00C0      		rjmp .L97
 763               	.L96:
 764               	.LM159:
 765 04a2 18A2      		std Y+32,__zero_reg__
 766               	.LM160:
 767 04a4 8130      		cpi r24,lo8(1)
 768 04a6 01F4      		brne .L97
 769               	.LM161:
 770 04a8 8093 0000 		sts zmiana,r24
 771               	.LM162:
 772 04ac 1F82      		std Y+7,__zero_reg__
 773               	.L97:
 774 04ae 8885      		ldd r24,Y+8
 775               	.LM163:
 776 04b0 3399      		sbic 38-32,3
 777 04b2 00C0      		rjmp .L98
 778               	.LM164:
 779 04b4 09A3      		std Y+33,r16
 780               	.LM165:
 781 04b6 8823      		tst r24
 782 04b8 01F4      		brne .L99
 783               	.LM166:
 784 04ba 0093 0000 		sts zmiana,r16
 785               	.LM167:
 786 04be 0887      		std Y+8,r16
 787 04c0 00C0      		rjmp .L99
 788               	.L98:
 789               	.LM168:
 790 04c2 19A2      		std Y+33,__zero_reg__
 791               	.LM169:
 792 04c4 8130      		cpi r24,lo8(1)
 793 04c6 01F4      		brne .L99
 794               	.LM170:
 795 04c8 8093 0000 		sts zmiana,r24
 796               	.LM171:
 797 04cc 1886      		std Y+8,__zero_reg__
 798               	.L99:
 799 04ce 8985      		ldd r24,Y+9
 800               	.LM172:
 801 04d0 3299      		sbic 38-32,2
 802 04d2 00C0      		rjmp .L100
 803               	.LM173:
 804 04d4 0AA3      		std Y+34,r16
 805               	.LM174:
 806 04d6 8823      		tst r24
 807 04d8 01F4      		brne .L101
 808               	.LM175:
 809 04da 0093 0000 		sts zmiana,r16
 810               	.LM176:
 811 04de 0987      		std Y+9,r16
 812 04e0 00C0      		rjmp .L101
 813               	.L100:
 814               	.LM177:
 815 04e2 1AA2      		std Y+34,__zero_reg__
 816               	.LM178:
 817 04e4 8130      		cpi r24,lo8(1)
 818 04e6 01F4      		brne .L101
 819               	.LM179:
 820 04e8 8093 0000 		sts zmiana,r24
 821               	.LM180:
 822 04ec 1986      		std Y+9,__zero_reg__
 823               	.L101:
 824 04ee 8A85      		ldd r24,Y+10
 825               	.LM181:
 826 04f0 3599      		sbic 38-32,5
 827 04f2 00C0      		rjmp .L102
 828               	.LM182:
 829 04f4 0BA3      		std Y+35,r16
 830               	.LM183:
 831 04f6 8823      		tst r24
 832 04f8 01F4      		brne .L103
 833               	.LM184:
 834 04fa 0093 0000 		sts zmiana,r16
 835               	.LM185:
 836 04fe 0A87      		std Y+10,r16
 837 0500 00C0      		rjmp .L103
 838               	.L102:
 839               	.LM186:
 840 0502 1BA2      		std Y+35,__zero_reg__
 841               	.LM187:
 842 0504 8130      		cpi r24,lo8(1)
 843 0506 01F4      		brne .L103
 844               	.LM188:
 845 0508 8093 0000 		sts zmiana,r24
 846               	.LM189:
 847 050c 1A86      		std Y+10,__zero_reg__
 848               	.L103:
 849 050e 8B85      		ldd r24,Y+11
 850               	.LM190:
 851 0510 3499      		sbic 38-32,4
 852 0512 00C0      		rjmp .L104
 853               	.LM191:
 854 0514 0CA3      		std Y+36,r16
 855               	.LM192:
 856 0516 8823      		tst r24
 857 0518 01F4      		brne .L105
 858               	.LM193:
 859 051a 0093 0000 		sts zmiana,r16
 860               	.LM194:
 861 051e 0B87      		std Y+11,r16
 862 0520 00C0      		rjmp .L105
 863               	.L104:
 864               	.LM195:
 865 0522 1CA2      		std Y+36,__zero_reg__
 866               	.LM196:
 867 0524 8130      		cpi r24,lo8(1)
 868 0526 01F4      		brne .L105
 869               	.LM197:
 870 0528 8093 0000 		sts zmiana,r24
 871               	.LM198:
 872 052c 1B86      		std Y+11,__zero_reg__
 873               	.L105:
 874 052e 8C85      		ldd r24,Y+12
 875               	.LM199:
 876 0530 3799      		sbic 38-32,7
 877 0532 00C0      		rjmp .L106
 878               	.LM200:
 879 0534 0DA3      		std Y+37,r16
 880               	.LM201:
 881 0536 8823      		tst r24
 882 0538 01F4      		brne .L107
 883               	.LM202:
 884 053a 0093 0000 		sts zmiana,r16
 885               	.LM203:
 886 053e 0C87      		std Y+12,r16
 887 0540 00C0      		rjmp .L107
 888               	.L106:
 889               	.LM204:
 890 0542 1DA2      		std Y+37,__zero_reg__
 891               	.LM205:
 892 0544 8130      		cpi r24,lo8(1)
 893 0546 01F4      		brne .L107
 894               	.LM206:
 895 0548 8093 0000 		sts zmiana,r24
 896               	.LM207:
 897 054c 1C86      		std Y+12,__zero_reg__
 898               	.L107:
 899 054e 8D85      		ldd r24,Y+13
 900               	.LM208:
 901 0550 3699      		sbic 38-32,6
 902 0552 00C0      		rjmp .L108
 903               	.LM209:
 904 0554 0EA3      		std Y+38,r16
 905               	.LM210:
 906 0556 8823      		tst r24
 907 0558 01F4      		brne .L109
 908               	.LM211:
 909 055a 0093 0000 		sts zmiana,r16
 910               	.LM212:
 911 055e 0D87      		std Y+13,r16
 912 0560 00C0      		rjmp .L109
 913               	.L108:
 914               	.LM213:
 915 0562 1EA2      		std Y+38,__zero_reg__
 916               	.LM214:
 917 0564 8130      		cpi r24,lo8(1)
 918 0566 01F4      		brne .L109
 919               	.LM215:
 920 0568 8093 0000 		sts zmiana,r24
 921               	.LM216:
 922 056c 1D86      		std Y+13,__zero_reg__
 923               	.L109:
 924 056e 8E85      		ldd r24,Y+14
 925               	.LM217:
 926 0570 0699      		sbic 32-32,6
 927 0572 00C0      		rjmp .L110
 928               	.LM218:
 929 0574 0FA3      		std Y+39,r16
 930               	.LM219:
 931 0576 8823      		tst r24
 932 0578 01F4      		brne .L111
 933               	.LM220:
 934 057a 0093 0000 		sts zmiana,r16
 935               	.LM221:
 936 057e 0E87      		std Y+14,r16
 937 0580 00C0      		rjmp .L111
 938               	.L110:
 939               	.LM222:
 940 0582 1FA2      		std Y+39,__zero_reg__
 941               	.LM223:
 942 0584 8130      		cpi r24,lo8(1)
 943 0586 01F4      		brne .L111
 944               	.LM224:
 945 0588 8093 0000 		sts zmiana,r24
 946               	.LM225:
 947 058c 1E86      		std Y+14,__zero_reg__
 948               	.L111:
 949 058e 8F85      		ldd r24,Y+15
 950               	.LM226:
 951 0590 0799      		sbic 32-32,7
 952 0592 00C0      		rjmp .L112
 953               	.LM227:
 954 0594 08A7      		std Y+40,r16
 955               	.LM228:
 956 0596 8823      		tst r24
 957 0598 01F4      		brne .L113
 958               	.LM229:
 959 059a 0093 0000 		sts zmiana,r16
 960               	.LM230:
 961 059e 0F87      		std Y+15,r16
 962 05a0 00C0      		rjmp .L113
 963               	.L112:
 964               	.LM231:
 965 05a2 18A6      		std Y+40,__zero_reg__
 966               	.LM232:
 967 05a4 8130      		cpi r24,lo8(1)
 968 05a6 01F4      		brne .L113
 969               	.LM233:
 970 05a8 8093 0000 		sts zmiana,r24
 971               	.LM234:
 972 05ac 1F86      		std Y+15,__zero_reg__
 973               	.L113:
 974 05ae 8889      		ldd r24,Y+16
 975               	.LM235:
 976 05b0 0499      		sbic 32-32,4
 977 05b2 00C0      		rjmp .L114
 978               	.LM236:
 979 05b4 09A7      		std Y+41,r16
 980               	.LM237:
 981 05b6 8823      		tst r24
 982 05b8 01F4      		brne .L115
 983               	.LM238:
 984 05ba 0093 0000 		sts zmiana,r16
 985               	.LM239:
 986 05be 088B      		std Y+16,r16
 987 05c0 00C0      		rjmp .L115
 988               	.L114:
 989               	.LM240:
 990 05c2 19A6      		std Y+41,__zero_reg__
 991               	.LM241:
 992 05c4 8130      		cpi r24,lo8(1)
 993 05c6 01F4      		brne .L115
 994               	.LM242:
 995 05c8 8093 0000 		sts zmiana,r24
 996               	.LM243:
 997 05cc 188A      		std Y+16,__zero_reg__
 998               	.L115:
 999 05ce 8989      		ldd r24,Y+17
 1000               	.LM244:
 1001 05d0 0599      		sbic 32-32,5
 1002 05d2 00C0      		rjmp .L116
 1003               	.LM245:
 1004 05d4 0AA7      		std Y+42,r16
 1005               	.LM246:
 1006 05d6 8823      		tst r24
 1007 05d8 01F4      		brne .L117
 1008               	.LM247:
 1009 05da 0093 0000 		sts zmiana,r16
 1010               	.LM248:
 1011 05de 098B      		std Y+17,r16
 1012 05e0 00C0      		rjmp .L117
 1013               	.L116:
 1014               	.LM249:
 1015 05e2 1AA6      		std Y+42,__zero_reg__
 1016               	.LM250:
 1017 05e4 8130      		cpi r24,lo8(1)
 1018 05e6 01F4      		brne .L117
 1019               	.LM251:
 1020 05e8 8093 0000 		sts zmiana,r24
 1021               	.LM252:
 1022 05ec 198A      		std Y+17,__zero_reg__
 1023               	.L117:
 1024 05ee 8A89      		ldd r24,Y+18
 1025               	.LM253:
 1026 05f0 0299      		sbic 32-32,2
 1027 05f2 00C0      		rjmp .L118
 1028               	.LM254:
 1029 05f4 0BA7      		std Y+43,r16
 1030               	.LM255:
 1031 05f6 8823      		tst r24
 1032 05f8 01F4      		brne .L119
 1033               	.LM256:
 1034 05fa 0093 0000 		sts zmiana,r16
 1035               	.LM257:
 1036 05fe 0A8B      		std Y+18,r16
 1037 0600 00C0      		rjmp .L119
 1038               	.L118:
 1039               	.LM258:
 1040 0602 1BA6      		std Y+43,__zero_reg__
 1041               	.LM259:
 1042 0604 8130      		cpi r24,lo8(1)
 1043 0606 01F4      		brne .L119
 1044               	.LM260:
 1045 0608 8093 0000 		sts zmiana,r24
 1046               	.LM261:
 1047 060c 1A8A      		std Y+18,__zero_reg__
 1048               	.L119:
 1049 060e 8B89      		ldd r24,Y+19
 1050               	.LM262:
 1051 0610 0399      		sbic 32-32,3
 1052 0612 00C0      		rjmp .L120
 1053               	.LM263:
 1054 0614 0CA7      		std Y+44,r16
 1055               	.LM264:
 1056 0616 8823      		tst r24
 1057 0618 01F4      		brne .L121
 1058               	.LM265:
 1059 061a 0093 0000 		sts zmiana,r16
 1060               	.LM266:
 1061 061e 0B8B      		std Y+19,r16
 1062 0620 00C0      		rjmp .L121
 1063               	.L120:
 1064               	.LM267:
 1065 0622 1CA6      		std Y+44,__zero_reg__
 1066               	.LM268:
 1067 0624 8130      		cpi r24,lo8(1)
 1068 0626 01F4      		brne .L121
 1069               	.LM269:
 1070 0628 8093 0000 		sts zmiana,r24
 1071               	.LM270:
 1072 062c 1B8A      		std Y+19,__zero_reg__
 1073               	.L121:
 1074 062e 8C89      		ldd r24,Y+20
 1075               	.LM271:
 1076 0630 0099      		sbic 32-32,0
 1077 0632 00C0      		rjmp .L122
 1078               	.LM272:
 1079 0634 0DA7      		std Y+45,r16
 1080               	.LM273:
 1081 0636 8823      		tst r24
 1082 0638 01F4      		brne .L123
 1083               	.LM274:
 1084 063a 0093 0000 		sts zmiana,r16
 1085               	.LM275:
 1086 063e 0C8B      		std Y+20,r16
 1087 0640 00C0      		rjmp .L123
 1088               	.L122:
 1089               	.LM276:
 1090 0642 1DA6      		std Y+45,__zero_reg__
 1091               	.LM277:
 1092 0644 8130      		cpi r24,lo8(1)
 1093 0646 01F4      		brne .L123
 1094               	.LM278:
 1095 0648 8093 0000 		sts zmiana,r24
 1096               	.LM279:
 1097 064c 1C8A      		std Y+20,__zero_reg__
 1098               	.L123:
 1099 064e 8D89      		ldd r24,Y+21
 1100               	.LM280:
 1101 0650 0199      		sbic 32-32,1
 1102 0652 00C0      		rjmp .L124
 1103               	.LM281:
 1104 0654 0EA7      		std Y+46,r16
 1105               	.LM282:
 1106 0656 8823      		tst r24
 1107 0658 01F4      		brne .L125
 1108               	.LM283:
 1109 065a 0093 0000 		sts zmiana,r16
 1110               	.LM284:
 1111 065e 0D8B      		std Y+21,r16
 1112 0660 00C0      		rjmp .L125
 1113               	.L124:
 1114               	.LM285:
 1115 0662 1EA6      		std Y+46,__zero_reg__
 1116               	.LM286:
 1117 0664 8130      		cpi r24,lo8(1)
 1118 0666 01F4      		brne .L125
 1119               	.LM287:
 1120 0668 8093 0000 		sts zmiana,r24
 1121               	.LM288:
 1122 066c 1D8A      		std Y+21,__zero_reg__
 1123               	.L125:
 1124 066e 8E89      		ldd r24,Y+22
 1125               	.LM289:
 1126 0670 1999      		sbic 35-32,1
 1127 0672 00C0      		rjmp .L126
 1128               	.LM290:
 1129 0674 0FA7      		std Y+47,r16
 1130               	.LM291:
 1131 0676 8823      		tst r24
 1132 0678 01F4      		brne .L127
 1133               	.LM292:
 1134 067a 0093 0000 		sts zmiana,r16
 1135               	.LM293:
 1136 067e 0E8B      		std Y+22,r16
 1137 0680 00C0      		rjmp .L127
 1138               	.L126:
 1139               	.LM294:
 1140 0682 1FA6      		std Y+47,__zero_reg__
 1141               	.LM295:
 1142 0684 8130      		cpi r24,lo8(1)
 1143 0686 01F4      		brne .L127
 1144               	.LM296:
 1145 0688 8093 0000 		sts zmiana,r24
 1146               	.LM297:
 1147 068c 1E8A      		std Y+22,__zero_reg__
 1148               	.L127:
 1149 068e 8F89      		ldd r24,Y+23
 1150               	.LM298:
 1151 0690 1899      		sbic 35-32,0
 1152 0692 00C0      		rjmp .L128
 1153               	.LM299:
 1154 0694 08AB      		std Y+48,r16
 1155               	.LM300:
 1156 0696 8823      		tst r24
 1157 0698 01F4      		brne .L129
 1158               	.LM301:
 1159 069a 0093 0000 		sts zmiana,r16
 1160               	.LM302:
 1161 069e 0F8B      		std Y+23,r16
 1162 06a0 00C0      		rjmp .L129
 1163               	.L128:
 1164               	.LM303:
 1165 06a2 18AA      		std Y+48,__zero_reg__
 1166               	.LM304:
 1167 06a4 8130      		cpi r24,lo8(1)
 1168 06a6 01F4      		brne .L129
 1169               	.LM305:
 1170 06a8 8093 0000 		sts zmiana,r24
 1171               	.LM306:
 1172 06ac 1F8A      		std Y+23,__zero_reg__
 1173               	.L129:
 1174 06ae 888D      		ldd r24,Y+24
 1175               	.LM307:
 1176 06b0 1B99      		sbic 35-32,3
 1177 06b2 00C0      		rjmp .L130
 1178               	.LM308:
 1179 06b4 09AB      		std Y+49,r16
 1180               	.LM309:
 1181 06b6 8823      		tst r24
 1182 06b8 01F4      		brne .L131
 1183               	.LM310:
 1184 06ba 0093 0000 		sts zmiana,r16
 1185               	.LM311:
 1186 06be 088F      		std Y+24,r16
 1187 06c0 00C0      		rjmp .L131
 1188               	.L130:
 1189               	.LM312:
 1190 06c2 19AA      		std Y+49,__zero_reg__
 1191               	.LM313:
 1192 06c4 8130      		cpi r24,lo8(1)
 1193 06c6 01F4      		brne .L131
 1194               	.LM314:
 1195 06c8 8093 0000 		sts zmiana,r24
 1196               	.LM315:
 1197 06cc 188E      		std Y+24,__zero_reg__
 1198               	.L131:
 1199 06ce 198D      		ldd r17,Y+25
 1200               	.LM316:
 1201 06d0 1A99      		sbic 35-32,2
 1202 06d2 00C0      		rjmp .L132
 1203               	.LM317:
 1204 06d4 0AAB      		std Y+50,r16
 1205               	.LM318:
 1206 06d6 1123      		tst r17
 1207 06d8 01F4      		brne .L133
 1208               	.LM319:
 1209 06da 0093 0000 		sts zmiana,r16
 1210               	.LM320:
 1211 06de 098F      		std Y+25,r16
 1212 06e0 00C0      		rjmp .L133
 1213               	.L132:
 1214               	.LM321:
 1215 06e2 1AAA      		std Y+50,__zero_reg__
 1216               	.LM322:
 1217 06e4 1130      		cpi r17,lo8(1)
 1218 06e6 01F4      		brne .L133
 1219               	.LM323:
 1220 06e8 C701      		movw r24,r14
 1221 06ea 0E94 0000 		call zloz_pakiet
 1222               	.LM324:
 1223 06ee 1093 0000 		sts zmiana,r17
 1224               	.LM325:
 1225 06f2 198E      		std Y+25,__zero_reg__
 1226               	.L133:
 1227               	.LM326:
 1228 06f4 1091 0000 		lds r17,zmiana
 1229 06f8 1130      		cpi r17,lo8(1)
 1230 06fa 01F4      		brne .L134
 1231 06fc C701      		movw r24,r14
 1232 06fe 0E94 0000 		call zloz_pakiet
 1233 0702 1093 0000 		sts led,r17
 1234               	.L134:
 1235               	.LM327:
 1236 0706 8091 0000 		lds r24,zmiana
 1237 070a 8130      		cpi r24,lo8(1)
 1238 070c 01F0      		breq .+2
 1239 070e 00C0      		rjmp .L135
 1240 0710 90E0      		ldi r25,lo8(0)
 1241 0712 00C0      		rjmp .L136
 1242               	.L137:
 1243               	.LM328:
 1244 0714 E92F      		mov r30,r25
 1245 0716 F0E0      		ldi r31,lo8(0)
 1246 0718 9F01      		movw r18,r30
 1247 071a 2050      		subi r18,lo8(-(buf))
 1248 071c 3040      		sbci r19,hi8(-(buf))
 1249 071e DF01      		movw r26,r30
 1250 0720 A050      		subi r26,lo8(-(mymac))
 1251 0722 B040      		sbci r27,hi8(-(mymac))
 1252 0724 8C91      		ld r24,X
 1253 0726 D901      		movw r26,r18
 1254 0728 8C93      		st X,r24
 1255               	.LM329:
 1256 072a E050      		subi r30,lo8(-(mac_centr))
 1257 072c F040      		sbci r31,hi8(-(mac_centr))
 1258 072e 8081      		ld r24,Z
 1259 0730 1696      		adiw r26,6
 1260 0732 8C93      		st X,r24
 1261 0734 9F5F      		subi r25,lo8(-(1))
 1262               	.L136:
 1263               	.LM330:
 1264 0736 9630      		cpi r25,lo8(6)
 1265 0738 00F0      		brlo .L137
 1266 073a 9093 0000 		sts i,r25
 1267               	.LM331:
 1268 073e C092 0000 		sts buf+12,r12
 1269               	.LM332:
 1270 0742 1092 0000 		sts buf+13,__zero_reg__
 1271               	.LM333:
 1272 0746 A0E0      		ldi r26,lo8(buf+14)
 1273 0748 B0E0      		ldi r27,hi8(buf+14)
 1274 074a E0E0      		ldi r30,lo8(iphdr)
 1275 074c F0E0      		ldi r31,hi8(iphdr)
 1276 074e 89E0      		ldi r24,lo8(9)
 1277               	.L138:
 1278 0750 0190      		ld r0,Z+
 1279 0752 0D92      		st X+,r0
 1280 0754 8150      		subi r24,lo8(-(-1))
 1281 0756 01F4      		brne .L138
 1282               	.LM334:
 1283 0758 1092 0000 		sts buf+16,__zero_reg__
 1284               	.LM335:
 1285 075c B092 0000 		sts buf+23,r11
 1286 0760 90E0      		ldi r25,lo8(0)
 1287 0762 00C0      		rjmp .L139
 1288               	.L140:
 1289               	.LM336:
 1290 0764 E92F      		mov r30,r25
 1291 0766 F0E0      		ldi r31,lo8(0)
 1292 0768 9F01      		movw r18,r30
 1293 076a 2050      		subi r18,lo8(-(buf))
 1294 076c 3040      		sbci r19,hi8(-(buf))
 1295 076e DF01      		movw r26,r30
 1296 0770 A050      		subi r26,lo8(-(myip))
 1297 0772 B040      		sbci r27,hi8(-(myip))
 1298 0774 8C91      		ld r24,X
 1299 0776 D901      		movw r26,r18
 1300 0778 5E96      		adiw r26,30
 1301 077a 8C93      		st X,r24
 1302 077c 5E97      		sbiw r26,30
 1303               	.LM337:
 1304 077e E050      		subi r30,lo8(-(dstip))
 1305 0780 F040      		sbci r31,hi8(-(dstip))
 1306 0782 8081      		ld r24,Z
 1307 0784 5A96      		adiw r26,26
 1308 0786 8C93      		st X,r24
 1309 0788 9F5F      		subi r25,lo8(-(1))
 1310               	.L139:
 1311               	.LM338:
 1312 078a 9430      		cpi r25,lo8(4)
 1313 078c 00F0      		brlo .L140
 1314 078e 9093 0000 		sts i,r25
 1315               	.LM339:
 1316 0792 A092 0000 		sts buf+34,r10
 1317               	.LM340:
 1318 0796 D092 0000 		sts buf+35,r13
 1319               	.LM341:
 1320 079a D092 0000 		sts buf+36,r13
 1321               	.LM342:
 1322 079e 1092 0000 		sts buf+38,__zero_reg__
 1323               	.LM343:
 1324 07a2 1092 0000 		sts buf+40,__zero_reg__
 1325               	.LM344:
 1326 07a6 1092 0000 		sts buf+41,__zero_reg__
 1327               	.LM345:
 1328 07aa 80E0      		ldi r24,lo8(buf)
 1329 07ac 90E0      		ldi r25,hi8(buf)
 1330 07ae 60E0      		ldi r22,lo8(dane)
 1331 07b0 70E0      		ldi r23,hi8(dane)
 1332 07b2 46E0      		ldi r20,lo8(6)
 1333 07b4 20EB      		ldi r18,lo8(1200)
 1334 07b6 34E0      		ldi r19,hi8(1200)
 1335 07b8 0E94 0000 		call make_udp_reply_from_request
 1336               	.LM346:
 1337 07bc 1092 0000 		sts zmiana,__zero_reg__
 1338               	.L135:
 1339               	.LM347:
 1340 07c0 8AEA      		ldi r24,lo8(1450)
 1341 07c2 95E0      		ldi r25,hi8(1450)
 1342 07c4 60E0      		ldi r22,lo8(buf)
 1343 07c6 70E0      		ldi r23,hi8(buf)
 1344 07c8 0E94 0000 		call enc28j60PacketReceive
 1345 07cc BC01      		movw r22,r24
 1346 07ce 9093 0000 		sts (plen)+1,r25
 1347 07d2 8093 0000 		sts plen,r24
 1348               	.LM348:
 1349 07d6 0097      		sbiw r24,0
 1350 07d8 01F4      		brne .+2
 1351 07da 00C0      		rjmp .L149
 1352               	.LM349:
 1353 07dc 80E0      		ldi r24,lo8(buf)
 1354 07de 90E0      		ldi r25,hi8(buf)
 1355 07e0 0E94 0000 		call eth_type_is_arp_and_my_ip
 1356 07e4 8823      		tst r24
 1357 07e6 01F0      		breq .L142
 1358               	.LM350:
 1359 07e8 80E0      		ldi r24,lo8(buf)
 1360 07ea 90E0      		ldi r25,hi8(buf)
 1361 07ec 0E94 0000 		call make_arp_answer_from_request
 1362 07f0 00C0      		rjmp .L149
 1363               	.L142:
 1364               	.LM351:
 1365 07f2 6091 0000 		lds r22,plen
 1366 07f6 7091 0000 		lds r23,(plen)+1
 1367 07fa 80E0      		ldi r24,lo8(buf)
 1368 07fc 90E0      		ldi r25,hi8(buf)
 1369 07fe 0E94 0000 		call eth_type_is_ip_and_my_ip
 1370 0802 8823      		tst r24
 1371 0804 01F4      		brne .+2
 1372 0806 00C0      		rjmp .L149
 1373               	.LM352:
 1374 0808 1091 0000 		lds r17,buf+23
 1375 080c 1130      		cpi r17,lo8(1)
 1376 080e 01F4      		brne .L143
 1377 0810 8091 0000 		lds r24,buf+34
 1378 0814 8830      		cpi r24,lo8(8)
 1379 0816 01F0      		breq .+2
 1380 0818 00C0      		rjmp .L149
 1381               	.LM353:
 1382 081a 6091 0000 		lds r22,plen
 1383 081e 7091 0000 		lds r23,(plen)+1
 1384 0822 80E0      		ldi r24,lo8(buf)
 1385 0824 90E0      		ldi r25,hi8(buf)
 1386 0826 0E94 0000 		call make_echo_reply_from_request
 1387               	.LM354:
 1388 082a 1092 0000 		sts (reset_time)+1,__zero_reg__
 1389 082e 1092 0000 		sts reset_time,__zero_reg__
 1390               	.LM355:
 1391 0832 1093 0000 		sts led,r17
 1392 0836 00C0      		rjmp .L149
 1393               	.L143:
 1394               	.LM356:
 1395 0838 1131      		cpi r17,lo8(17)
 1396 083a 01F0      		breq .+2
 1397 083c 00C0      		rjmp .L149
 1398               	.LM357:
 1399 083e 1092 0000 		sts (reset_time)+1,__zero_reg__
 1400 0842 1092 0000 		sts reset_time,__zero_reg__
 1401               	.LM358:
 1402 0846 0093 0000 		sts led,r16
 1403 084a 00C0      		rjmp .L149
 1404               	.LFE7:
 1406               	.global	i
 1407               	.global	i
 1408               		.section .bss
 1411               	i:
 1412 0000 00        		.skip 1,0
 1413               	.global	cmd_pos
 1414               	.global	cmd_pos
 1417               	cmd_pos:
 1418 0001 00        		.skip 1,0
 1419               	.global	payloadlen
 1420               	.global	payloadlen
 1423               	payloadlen:
 1424 0002 00        		.skip 1,0
 1425               	.global	z
 1426               	.global	z
 1429               	z:
 1430 0003 0000      		.skip 2,0
 1431               	.global	reset_time
 1432               	.global	reset_time
 1435               	reset_time:
 1436 0005 0000      		.skip 2,0
 1437               		.data
 1440               	mymac:
 1441 0000 44        		.byte	68
 1442 0001 4F        		.byte	79
 1443 0002 41        		.byte	65
 1444 0003 12        		.byte	18
 1445 0004 F2        		.byte	-14
 1446 0005 12        		.byte	18
 1449               	myip:
 1450 0006 C0        		.byte	-64
 1451 0007 A8        		.byte	-88
 1452 0008 01        		.byte	1
 1453 0009 67        		.byte	103
 1456               	mac_centr:
 1457 000a B8        		.byte	-72
 1458 000b 27        		.byte	39
 1459 000c EB        		.byte	-21
 1460 000d 35        		.byte	53
 1461 000e 5D        		.byte	93
 1462 000f 0B        		.byte	11
 1465               	iphdr:
 1466 0010 45        		.byte	69
 1467 0011 00        		.byte	0
 1468 0012 00        		.byte	0
 1469 0013 82        		.byte	-126
 1470 0014 00        		.byte	0
 1471 0015 00        		.byte	0
 1472 0016 40        		.byte	64
 1473 0017 00        		.byte	0
 1474 0018 20        		.byte	32
 1477               	dstip:
 1478 0019 C0        		.byte	-64
 1479 001a A8        		.byte	-88
 1480 001b 01        		.byte	1
 1481 001c 02        		.byte	2
 1482               		.lcomm buf,1451
 1483               		.comm t1,2,1
 1484               		.comm t2,2,1
 1485               		.comm t3,2,1
 1486               		.comm t,2,1
 1487               		.comm nats1,1,1
 1488               		.comm nats2,1,1
 1489               		.comm nats3,1,1
 1490               		.comm nats4,1,1
 1491               		.comm nats5,1,1
 1492               		.comm tha,2,1
 1493               		.comm ha,2,1
 1494               		.comm ta,2,1
 1495               		.comm ua,2,1
 1496               		.comm push,2,1
 1497               		.comm push2,2,1
 1498               		.comm push3,2,1
 1499               		.comm push4,2,1
 1500               		.comm push5,2,1
 1501               		.comm temp_d,2,1
 1502               		.comm temp_n,2,1
 1503               		.comm nat1,2,1
 1504               		.comm nat2,2,1
 1505               		.comm nat3,2,1
 1506               		.comm nat4,2,1
 1507               		.comm nat5,2,1
 1508               		.comm pilot_licz,2,1
 1509               		.comm p,2,1
 1510               		.comm przycisk,2,1
 1511               		.comm zrodlo1,1,1
 1512               		.comm zrodlo2,1,1
 1513               		.comm zrodlo3,1,1
 1514               		.comm zrodlo4,1,1
 1515               		.comm zrodlo5,1,1
 1516               		.comm swiatlo1,1,1
 1517               		.comm swiatlo2,1,1
 1518               		.comm swiatlo3,1,1
 1519               		.comm swiatlo4,1,1
 1520               		.comm swiatlo5,1,1
 1521               		.comm czujka,1,1
 1522               		.comm irda,1,1
 1523               		.comm klimat,1,1
 1524               		.comm d_n,1,1
 1525               		.comm push_up,1,1
 1526               		.comm push2_up,1,1
 1527               		.comm push3_up,1,1
 1528               		.comm push4_up,1,1
 1529               		.comm push5_up,1,1
 1530               		.comm push_down,1,1
 1531               		.comm zmiana,1,1
 1532               		.comm temp_out_H,1,1
 1533               		.comm temp_out_L,1,1
 1534               		.comm temp_in,2,1
 1535               		.comm rh_in,2,1
 1536               		.comm stan1,2,1
 1537               		.comm plen,2,1
 1538               		.comm cmdval,1,1
 1539               		.comm led,1,1
 1540               		.comm led_delay,1,1
 1541               		.comm dane,26,1
 1590               	.Letext0:
DEFINED SYMBOLS
                            *ABS*:00000000 main.c
C:\Users\ADMINI~1\AppData\Local\Temp/ccapLAnn.s:2      *ABS*:0000003f __SREG__
C:\Users\ADMINI~1\AppData\Local\Temp/ccapLAnn.s:3      *ABS*:0000003e __SP_H__
C:\Users\ADMINI~1\AppData\Local\Temp/ccapLAnn.s:4      *ABS*:0000003d __SP_L__
C:\Users\ADMINI~1\AppData\Local\Temp/ccapLAnn.s:5      *ABS*:00000034 __CCP__
C:\Users\ADMINI~1\AppData\Local\Temp/ccapLAnn.s:6      *ABS*:00000000 __tmp_reg__
C:\Users\ADMINI~1\AppData\Local\Temp/ccapLAnn.s:7      *ABS*:00000001 __zero_reg__
C:\Users\ADMINI~1\AppData\Local\Temp/ccapLAnn.s:18     .text:00000000 zloz_pakiet
                            *COM*:0000001a dane
C:\Users\ADMINI~1\AppData\Local\Temp/ccapLAnn.s:356    .text:0000025a SystemInit
C:\Users\ADMINI~1\AppData\Local\Temp/ccapLAnn.s:427    .text:000002a8 __vector_18
C:\Users\ADMINI~1\AppData\Local\Temp/ccapLAnn.s:1435   .bss:00000005 reset_time
                            *COM*:00000001 led_delay
C:\Users\ADMINI~1\AppData\Local\Temp/ccapLAnn.s:462    .text:000002e0 main
C:\Users\ADMINI~1\AppData\Local\Temp/ccapLAnn.s:1440   .data:00000000 mymac
C:\Users\ADMINI~1\AppData\Local\Temp/ccapLAnn.s:1449   .data:00000006 myip
                            *COM*:00000001 zmiana
                            *COM*:00000001 led
                             .bss:00000007 buf
C:\Users\ADMINI~1\AppData\Local\Temp/ccapLAnn.s:1456   .data:0000000a mac_centr
C:\Users\ADMINI~1\AppData\Local\Temp/ccapLAnn.s:1411   .bss:00000000 i
C:\Users\ADMINI~1\AppData\Local\Temp/ccapLAnn.s:1465   .data:00000010 iphdr
C:\Users\ADMINI~1\AppData\Local\Temp/ccapLAnn.s:1477   .data:00000019 dstip
                            *COM*:00000002 plen
C:\Users\ADMINI~1\AppData\Local\Temp/ccapLAnn.s:1417   .bss:00000001 cmd_pos
C:\Users\ADMINI~1\AppData\Local\Temp/ccapLAnn.s:1423   .bss:00000002 payloadlen
C:\Users\ADMINI~1\AppData\Local\Temp/ccapLAnn.s:1429   .bss:00000003 z
                            *COM*:00000002 t1
                            *COM*:00000002 t2
                            *COM*:00000002 t3
                            *COM*:00000002 t
                            *COM*:00000001 nats1
                            *COM*:00000001 nats2
                            *COM*:00000001 nats3
                            *COM*:00000001 nats4
                            *COM*:00000001 nats5
                            *COM*:00000002 tha
                            *COM*:00000002 ha
                            *COM*:00000002 ta
                            *COM*:00000002 ua
                            *COM*:00000002 push
                            *COM*:00000002 push2
                            *COM*:00000002 push3
                            *COM*:00000002 push4
                            *COM*:00000002 push5
                            *COM*:00000002 temp_d
                            *COM*:00000002 temp_n
                            *COM*:00000002 nat1
                            *COM*:00000002 nat2
                            *COM*:00000002 nat3
                            *COM*:00000002 nat4
                            *COM*:00000002 nat5
                            *COM*:00000002 pilot_licz
                            *COM*:00000002 p
                            *COM*:00000002 przycisk
                            *COM*:00000001 zrodlo1
                            *COM*:00000001 zrodlo2
                            *COM*:00000001 zrodlo3
                            *COM*:00000001 zrodlo4
                            *COM*:00000001 zrodlo5
                            *COM*:00000001 swiatlo1
                            *COM*:00000001 swiatlo2
                            *COM*:00000001 swiatlo3
                            *COM*:00000001 swiatlo4
                            *COM*:00000001 swiatlo5
                            *COM*:00000001 czujka
                            *COM*:00000001 irda
                            *COM*:00000001 klimat
                            *COM*:00000001 d_n
                            *COM*:00000001 push_up
                            *COM*:00000001 push2_up
                            *COM*:00000001 push3_up
                            *COM*:00000001 push4_up
                            *COM*:00000001 push5_up
                            *COM*:00000001 push_down
                            *COM*:00000001 temp_out_H
                            *COM*:00000001 temp_out_L
                            *COM*:00000002 temp_in
                            *COM*:00000002 rh_in
                            *COM*:00000002 stan1
                            *COM*:00000001 cmdval

UNDEFINED SYMBOLS
enc28j60Init
enc28j60PhyWrite
init_ip_arp_udp_tcp
make_udp_reply_from_request
enc28j60PacketReceive
eth_type_is_arp_and_my_ip
make_arp_answer_from_request
eth_type_is_ip_and_my_ip
make_echo_reply_from_request
__do_copy_data
__do_clear_bss
